target datalayout = "e-m:e-p270:32:32-p271:32:32-p272:64:64-i64:64-i128:128-f80:128-n8:16:32:64-S128"
target triple = "x86_64-pc-linux-gnu"

%struct.AVCodecContext = type { ptr, i32, i32, ptr, i32, i32, ptr, ptr, ptr, i64, i32, i32, ptr, i32, %struct.AVRational, %struct.AVRational, %struct.AVRational, i32, i32, i32, i32, i32, %struct.AVRational, i32, i32, i32, i32, i32, i32, i32, i32, i32, i32, i32, ptr, ptr, i32, float, float, float, float, float, float, float, float, float, i32, i32, i32, i32, i32, i32, i32, i32, i32, i32, i32, i32, ptr, ptr, ptr, i32, i32, i32, i32, i32, i32, i32, i32, i32, i32, %struct.AVChannelLayout, i32, i32, i32, i32, i32, i32, i32, i32, ptr, i32, i32, i32, float, float, i32, i32, i32, i32, i32, ptr, i64, i64, float, float, i32, i32, ptr, ptr, i32, i32, i32, i32, i32, ptr, ptr, ptr, ptr, i32, i32, [8 x i64], i32, i32, i32, i32, i32, i32, i32, ptr, ptr, i32, i32, i32, i32, i32, i32, i32, i32, i32, i32, ptr, ptr, i32, i32, ptr, ptr, ptr, ptr, i32, i32, i64, i32, i32, i64, ptr, i64, ptr, i32, ptr, i32 }
%struct.AVRational = type { i32, i32 }
%struct.AVChannelLayout = type { i32, i32, %union.anon.0, ptr }
%union.anon.0 = type { i64 }
%struct.LclEncContext = type { ptr, i32, i32, i32, %struct.FFZStream }
%struct.FFZStream = type { %struct.z_stream_s, i32 }
%struct.z_stream_s = type { ptr, i32, i64, ptr, i32, i64, ptr, ptr, ptr, ptr, ptr, i32, i64, i64 }
%struct.AVPacket = type { ptr, i64, i64, ptr, i32, i32, i32, ptr, i32, i64, i64, ptr, ptr, %struct.AVRational }
%struct.AVFrame = type { [8 x ptr], [8 x i32], ptr, i32, i32, i32, i32, i32, %struct.AVRational, i64, i64, %struct.AVRational, i32, ptr, i32, i32, [8 x ptr], ptr, i32, ptr, i32, i32, i32, i32, i32, i32, i32, i64, ptr, i32, ptr, ptr, i64, i64, i64, i64, ptr, %struct.AVChannelLayout, i64 }

@.str.5 = private unnamed_addr constant [23 x i8] c"Format not supported!\0A\00", align 1
@.str.6 = private unnamed_addr constant [25 x i8] c"Deflate reset error: %d\0A\00", align 1
@.str.7 = private unnamed_addr constant [19 x i8] c"Deflate error: %d\0A\00", align 1

; Function Attrs: nounwind uwtable
define internal i32 @encode_frame(ptr noundef %0, ptr noundef %1, ptr noundef %2, ptr noundef %3) #1 {
  %5 = alloca i32, align 4
  %6 = alloca ptr, align 8
  %7 = alloca ptr, align 8
  %8 = alloca ptr, align 8
  %9 = alloca ptr, align 8
  %10 = alloca ptr, align 8
  %11 = alloca ptr, align 8
  %12 = alloca i32, align 4
  %13 = alloca i32, align 4
  %14 = alloca i32, align 4
  %15 = alloca i32, align 4
  %16 = alloca i32, align 4
  store ptr %0, ptr %6, align 8, !tbaa !4
  store ptr %1, ptr %7, align 8, !tbaa !46
  store ptr %2, ptr %8, align 8, !tbaa !48
  store ptr %3, ptr %9, align 8, !tbaa !50
  call void @llvm.lifetime.start.p0(i64 8, ptr %10) #6
  %17 = load ptr, ptr %6, align 8, !tbaa !4
  %18 = getelementptr inbounds nuw %struct.AVCodecContext, ptr %17, i32 0, i32 6
  %19 = load ptr, ptr %18, align 8, !tbaa !9
  store ptr %19, ptr %10, align 8, !tbaa !29
  call void @llvm.lifetime.start.p0(i64 8, ptr %11) #6
  %20 = load ptr, ptr %10, align 8, !tbaa !29
  %21 = getelementptr inbounds nuw %struct.LclEncContext, ptr %20, i32 0, i32 4
  %22 = getelementptr inbounds nuw %struct.FFZStream, ptr %21, i32 0, i32 0
  store ptr %22, ptr %11, align 8, !tbaa !51
  call void @llvm.lifetime.start.p0(i64 4, ptr %12) #6
  call void @llvm.lifetime.start.p0(i64 4, ptr %13) #6
  call void @llvm.lifetime.start.p0(i64 4, ptr %14) #6
  call void @llvm.lifetime.start.p0(i64 4, ptr %15) #6
  %23 = load ptr, ptr %11, align 8, !tbaa !51
  %24 = load ptr, ptr %6, align 8, !tbaa !4
  %25 = getelementptr inbounds nuw %struct.AVCodecContext, ptr %24, i32 0, i32 18
  %26 = load i32, ptr %25, align 8, !tbaa !36
  %27 = load ptr, ptr %6, align 8, !tbaa !4
  %28 = getelementptr inbounds nuw %struct.AVCodecContext, ptr %27, i32 0, i32 19
  %29 = load i32, ptr %28, align 4, !tbaa !37
  %30 = mul nsw i32 %26, %29
  %31 = mul nsw i32 %30, 3
  %32 = sext i32 %31 to i64
  %33 = call i64 @deflateBound(ptr noundef %23, i64 noundef %32)
  %34 = trunc i64 %33 to i32
  store i32 %34, ptr %15, align 4, !tbaa !53
  %35 = load ptr, ptr %6, align 8, !tbaa !4
  %36 = load ptr, ptr %7, align 8, !tbaa !46
  %37 = load i32, ptr %15, align 4, !tbaa !53
  %38 = sext i32 %37 to i64
  %39 = call i32 @ff_alloc_packet(ptr noundef %35, ptr noundef %36, i64 noundef %38)
  store i32 %39, ptr %13, align 4, !tbaa !53
  %40 = icmp slt i32 %39, 0
  br i1 %40, label %41, label %43

41:                                               ; preds = %4
  %42 = load i32, ptr %13, align 4, !tbaa !53
  store i32 %42, ptr %5, align 4
  store i32 1, ptr %16, align 4
  br label %124

43:                                               ; preds = %4
  %44 = load ptr, ptr %6, align 8, !tbaa !4
  %45 = getelementptr inbounds nuw %struct.AVCodecContext, ptr %44, i32 0, i32 23
  %46 = load i32, ptr %45, align 8, !tbaa !54
  %47 = icmp ne i32 %46, 3
  br i1 %47, label %48, label %50

48:                                               ; preds = %43
  %49 = load ptr, ptr %6, align 8, !tbaa !4
  call void (ptr, i32, ptr, ...) @av_log(ptr noundef %49, i32 noundef 16, ptr noundef @.str.5)
  store i32 -1, ptr %5, align 4
  store i32 1, ptr %16, align 4
  br label %124

50:                                               ; preds = %43
  %51 = load ptr, ptr %11, align 8, !tbaa !51
  %52 = call i32 @deflateReset(ptr noundef %51)
  store i32 %52, ptr %14, align 4, !tbaa !53
  %53 = load i32, ptr %14, align 4, !tbaa !53
  %54 = icmp ne i32 %53, 0
  br i1 %54, label %55, label %58

55:                                               ; preds = %50
  %56 = load ptr, ptr %6, align 8, !tbaa !4
  %57 = load i32, ptr %14, align 4, !tbaa !53
  call void (ptr, i32, ptr, ...) @av_log(ptr noundef %56, i32 noundef 16, ptr noundef @.str.6, i32 noundef %57)
  store i32 -1, ptr %5, align 4
  store i32 1, ptr %16, align 4
  br label %124

58:                                               ; preds = %50
  %59 = load ptr, ptr %7, align 8, !tbaa !46
  %60 = getelementptr inbounds nuw %struct.AVPacket, ptr %59, i32 0, i32 3
  %61 = load ptr, ptr %60, align 8, !tbaa !55
  %62 = load ptr, ptr %11, align 8, !tbaa !51
  %63 = getelementptr inbounds nuw %struct.z_stream_s, ptr %62, i32 0, i32 3
  store ptr %61, ptr %63, align 8, !tbaa !57
  %64 = load ptr, ptr %7, align 8, !tbaa !46
  %65 = getelementptr inbounds nuw %struct.AVPacket, ptr %64, i32 0, i32 4
  %66 = load i32, ptr %65, align 8, !tbaa !58
  %67 = load ptr, ptr %11, align 8, !tbaa !51
  %68 = getelementptr inbounds nuw %struct.z_stream_s, ptr %67, i32 0, i32 4
  store i32 %66, ptr %68, align 8, !tbaa !59
  %69 = load ptr, ptr %6, align 8, !tbaa !4
  %70 = getelementptr inbounds nuw %struct.AVCodecContext, ptr %69, i32 0, i32 19
  %71 = load i32, ptr %70, align 4, !tbaa !37
  %72 = sub nsw i32 %71, 1
  store i32 %72, ptr %12, align 4, !tbaa !53
  br label %73

73:                                               ; preds = %105, %58
  %74 = load i32, ptr %12, align 4, !tbaa !53
  %75 = icmp sge i32 %74, 0
  br i1 %75, label %76, label %108

76:                                               ; preds = %73
  %77 = load ptr, ptr %8, align 8, !tbaa !48
  %78 = getelementptr inbounds nuw %struct.AVFrame, ptr %77, i32 0, i32 0
  %79 = getelementptr inbounds [8 x ptr], ptr %78, i64 0, i64 0
  %80 = load ptr, ptr %79, align 8, !tbaa !60
  %81 = load ptr, ptr %8, align 8, !tbaa !48
  %82 = getelementptr inbounds nuw %struct.AVFrame, ptr %81, i32 0, i32 1
  %83 = getelementptr inbounds [8 x i32], ptr %82, i64 0, i64 0
  %84 = load i32, ptr %83, align 8, !tbaa !53
  %85 = load i32, ptr %12, align 4, !tbaa !53
  %86 = mul nsw i32 %84, %85
  %87 = sext i32 %86 to i64
  %88 = getelementptr inbounds i8, ptr %80, i64 %87
  %89 = load ptr, ptr %11, align 8, !tbaa !51
  %90 = getelementptr inbounds nuw %struct.z_stream_s, ptr %89, i32 0, i32 0
  store ptr %88, ptr %90, align 8, !tbaa !61
  %91 = load ptr, ptr %6, align 8, !tbaa !4
  %92 = getelementptr inbounds nuw %struct.AVCodecContext, ptr %91, i32 0, i32 18
  %93 = load i32, ptr %92, align 8, !tbaa !36
  %94 = mul nsw i32 %93, 3
  %95 = load ptr, ptr %11, align 8, !tbaa !51
  %96 = getelementptr inbounds nuw %struct.z_stream_s, ptr %95, i32 0, i32 1
  store i32 %94, ptr %96, align 8, !tbaa !62
  %97 = load ptr, ptr %11, align 8, !tbaa !51
  %98 = call i32 @deflate(ptr noundef %97, i32 noundef 0)
  store i32 %98, ptr %14, align 4, !tbaa !53
  %99 = load i32, ptr %14, align 4, !tbaa !53
  %100 = icmp ne i32 %99, 0
  br i1 %100, label %101, label %104

101:                                              ; preds = %76
  %102 = load ptr, ptr %6, align 8, !tbaa !4
  %103 = load i32, ptr %14, align 4, !tbaa !53
  call void (ptr, i32, ptr, ...) @av_log(ptr noundef %102, i32 noundef 16, ptr noundef @.str.7, i32 noundef %103)
  store i32 -1, ptr %5, align 4
  store i32 1, ptr %16, align 4
  br label %124

104:                                              ; preds = %76
  br label %105

105:                                              ; preds = %104
  %106 = load i32, ptr %12, align 4, !tbaa !53
  %107 = add nsw i32 %106, -1
  store i32 %107, ptr %12, align 4, !tbaa !53
  br label %73, !llvm.loop !63

108:                                              ; preds = %73
  %109 = load ptr, ptr %11, align 8, !tbaa !51
  %110 = call i32 @deflate(ptr noundef %109, i32 noundef 4)
  store i32 %110, ptr %14, align 4, !tbaa !53
  %111 = load i32, ptr %14, align 4, !tbaa !53
  %112 = icmp ne i32 %111, 1
  br i1 %112, label %113, label %116

113:                                              ; preds = %108
  %114 = load ptr, ptr %6, align 8, !tbaa !4
  %115 = load i32, ptr %14, align 4, !tbaa !53
  call void (ptr, i32, ptr, ...) @av_log(ptr noundef %114, i32 noundef 16, ptr noundef @.str.7, i32 noundef %115)
  store i32 -1, ptr %5, align 4
  store i32 1, ptr %16, align 4
  br label %124

116:                                              ; preds = %108
  %117 = load ptr, ptr %11, align 8, !tbaa !51
  %118 = getelementptr inbounds nuw %struct.z_stream_s, ptr %117, i32 0, i32 5
  %119 = load i64, ptr %118, align 8, !tbaa !65
  %120 = trunc i64 %119 to i32
  %121 = load ptr, ptr %7, align 8, !tbaa !46
  %122 = getelementptr inbounds nuw %struct.AVPacket, ptr %121, i32 0, i32 4
  store i32 %120, ptr %122, align 8, !tbaa !58
  %123 = load ptr, ptr %9, align 8, !tbaa !50
  store i32 1, ptr %123, align 4, !tbaa !53
  store i32 0, ptr %5, align 4
  store i32 1, ptr %16, align 4
  br label %124

124:                                              ; preds = %116, %113, %101, %55, %48, %41
  call void @llvm.lifetime.end.p0(i64 4, ptr %15) #6
  call void @llvm.lifetime.end.p0(i64 4, ptr %14) #6
  call void @llvm.lifetime.end.p0(i64 4, ptr %13) #6
  call void @llvm.lifetime.end.p0(i64 4, ptr %12) #6
  call void @llvm.lifetime.end.p0(i64 8, ptr %11) #6
  call void @llvm.lifetime.end.p0(i64 8, ptr %10) #6
  %125 = load i32, ptr %5, align 4
  ret i32 %125
}