; Function Attrs: nounwind uwtable
define internal range(i32 -2147483648, 1) i32 @encode_frame(ptr noundef %0, ptr noundef %1, ptr noundef readonly captures(none) %2, ptr noundef writeonly captures(none) %3) #1 {
  %5 = getelementptr inbounds nuw i8, ptr %0, i64 32
  %6 = load ptr, ptr %5, align 8, !tbaa !4
  %7 = getelementptr inbounds nuw i8, ptr %6, i64 24
  %8 = getelementptr inbounds nuw i8, ptr %0, i64 112
  %9 = load i32, ptr %8, align 8, !tbaa !33
  %10 = getelementptr inbounds nuw i8, ptr %0, i64 116
  %11 = load i32, ptr %10, align 4, !tbaa !34
  %12 = mul i32 %9, 3
  %13 = mul i32 %12, %11
  %14 = sext i32 %13 to i64
  %15 = tail call i64 @deflateBound(ptr noundef nonnull %7, i64 noundef %14) #5
  %sext = shl i64 %15, 32
  %16 = ashr exact i64 %sext, 32
  %17 = tail call i32 @ff_alloc_packet(ptr noundef %0, ptr noundef %1, i64 noundef %16) #5
  %18 = icmp slt i32 %17, 0
  br i1 %18, label %55, label %19

19:                                               ; preds = %4
  %20 = getelementptr inbounds nuw i8, ptr %0, i64 136
  %21 = load i32, ptr %20, align 8, !tbaa !43
  %.not = icmp eq i32 %21, 3
  br i1 %.not, label %23, label %22

22:                                               ; preds = %19
  tail call void (ptr, i32, ptr, ...) @av_log(ptr noundef nonnull %0, i32 noundef 16, ptr noundef nonnull @.str.5) #5
  br label %55

23:                                               ; preds = %19
  %24 = tail call i32 @deflateReset(ptr noundef nonnull %7) #5
  %.not44 = icmp eq i32 %24, 0
  br i1 %.not44, label %26, label %25

25:                                               ; preds = %23
  tail call void (ptr, i32, ptr, ...) @av_log(ptr noundef nonnull %0, i32 noundef 16, ptr noundef nonnull @.str.6, i32 noundef %24) #5
  br label %55

26:                                               ; preds = %23
  %27 = getelementptr inbounds nuw i8, ptr %1, i64 24
  %28 = load ptr, ptr %27, align 8, !tbaa !44
  %29 = getelementptr inbounds nuw i8, ptr %6, i64 48
  store ptr %28, ptr %29, align 8, !tbaa !46
  %30 = getelementptr inbounds nuw i8, ptr %1, i64 32
  %31 = load i32, ptr %30, align 8, !tbaa !47
  %32 = getelementptr inbounds nuw i8, ptr %6, i64 56
  store i32 %31, ptr %32, align 8, !tbaa !48
  %33 = load i32, ptr %10, align 4, !tbaa !34
  %34 = getelementptr inbounds nuw i8, ptr %2, i64 64
  %35 = getelementptr inbounds nuw i8, ptr %6, i64 32
  br label %36

36:                                               ; preds = %38, %26
  %.039.in = phi i32 [ %33, %26 ], [ %.039, %38 ]
  %37 = icmp sgt i32 %.039.in, 0
  br i1 %37, label %38, label %48

38:                                               ; preds = %36
  %.039 = add nsw i32 %.039.in, -1
  %39 = load ptr, ptr %2, align 8, !tbaa !49
  %40 = load i32, ptr %34, align 8, !tbaa !50
  %41 = mul nsw i32 %40, %.039
  %42 = sext i32 %41 to i64
  %43 = getelementptr inbounds i8, ptr %39, i64 %42
  store ptr %43, ptr %7, align 8, !tbaa !51
  %44 = load i32, ptr %8, align 8, !tbaa !33
  %45 = mul nsw i32 %44, 3
  store i32 %45, ptr %35, align 8, !tbaa !52
  %46 = tail call i32 @deflate(ptr noundef nonnull %7, i32 noundef 0) #5
  %.not46 = icmp eq i32 %46, 0
  br i1 %.not46, label %36, label %47, !llvm.loop !53

47:                                               ; preds = %38
  tail call void (ptr, i32, ptr, ...) @av_log(ptr noundef nonnull %0, i32 noundef 16, ptr noundef nonnull @.str.7, i32 noundef %46) #5
  br label %55

48:                                               ; preds = %36
  %49 = tail call i32 @deflate(ptr noundef nonnull %7, i32 noundef 4) #5
  %.not45 = icmp eq i32 %49, 1
  br i1 %.not45, label %51, label %50

50:                                               ; preds = %48
  tail call void (ptr, i32, ptr, ...) @av_log(ptr noundef nonnull %0, i32 noundef 16, ptr noundef nonnull @.str.7, i32 noundef %49) #5
  br label %55

51:                                               ; preds = %48
  %52 = getelementptr inbounds nuw i8, ptr %6, i64 64
  %53 = load i64, ptr %52, align 8, !tbaa !55
  %54 = trunc i64 %53 to i32
  store i32 %54, ptr %30, align 8, !tbaa !47
  store i32 1, ptr %3, align 4, !tbaa !50
  br label %55

55:                                               ; preds = %4, %51, %50, %47, %25, %22
  %.0 = phi i32 [ -1, %22 ], [ -1, %25 ], [ -1, %47 ], [ -1, %50 ], [ 0, %51 ], [ %17, %4 ]
  ret i32 %.0
}